target datalayout = "e-m:e-p270:32:32-p271:32:32-p272:64:64-i64:64-i128:128-f80:128-n8:16:32:64-S128"
target triple = "x86_64-pc-linux-gnu"

%struct.PGShmemHeader = type { i32, i32, i64, i64, i32, ptr, i64, i64 }

@ShmemSegHdr = internal global ptr null, align 8
@ShmemBase = internal global ptr null, align 8
@ShmemLock = dso_local global ptr null, align 8
@.str = private unnamed_addr constant [43 x i8] c"out of shared memory (%zu bytes requested)\00", align 1
@.str.1 = private unnamed_addr constant [8 x i8] c"shmem.c\00", align 1
@__func__.ShmemAlloc = private unnamed_addr constant [11 x i8] c"ShmemAlloc\00", align 1
@__func__.ShmemAllocRaw = private unnamed_addr constant [14 x i8] c"ShmemAllocRaw\00", align 1

; Function Attrs: inlinehint nounwind uwtable
define internal i32 @tas(ptr noundef %0) #5 {
  %2 = alloca ptr, align 8
  %3 = alloca i8, align 1
  store ptr %0, ptr %2, align 8
  call void @llvm.lifetime.start.p0(i64 1, ptr %3) #6
  store i8 1, ptr %3, align 1
  %4 = load i8, ptr %3, align 1
  %5 = load ptr, ptr %2, align 8
  %6 = call i8 asm sideeffect "\09lock\09\09\09\0A\09xchgb\09$0,$1\09\0A", "=q,=*m,0,*m,~{memory},~{cc},~{dirflag},~{fpsr},~{flags}"(ptr elementtype(i8) %5, i8 %4, ptr elementtype(i8) %5) #6, !srcloc !10
  store i8 %6, ptr %3, align 1
  %7 = load i8, ptr %3, align 1
  %8 = zext i8 %7 to i32
  call void @llvm.lifetime.end.p0(i64 1, ptr %3) #6
  ret i32 %8
}

; Function Attrs: nounwind uwtable
define internal ptr @ShmemAllocRaw(i64 noundef %0, ptr noundef %1) #0 {
  %3 = alloca i64, align 8
  %4 = alloca ptr, align 8
  %5 = alloca i64, align 8
  %6 = alloca i64, align 8
  %7 = alloca ptr, align 8
  store i64 %0, ptr %3, align 8
  store ptr %1, ptr %4, align 8
  call void @llvm.lifetime.start.p0(i64 8, ptr %5) #6
  call void @llvm.lifetime.start.p0(i64 8, ptr %6) #6
  call void @llvm.lifetime.start.p0(i64 8, ptr %7) #6
  %8 = load i64, ptr %3, align 8
  %9 = add i64 %8, 127
  %10 = and i64 %9, -128
  store i64 %10, ptr %3, align 8
  %11 = load i64, ptr %3, align 8
  %12 = load ptr, ptr %4, align 8
  store i64 %11, ptr %12, align 8
  %13 = load ptr, ptr @ShmemLock, align 8
  %14 = call i32 @tas(ptr noundef %13)
  %15 = icmp ne i32 %14, 0
  br i1 %15, label %16, label %19

16:                                               ; preds = %2
  %17 = load ptr, ptr @ShmemLock, align 8
  %18 = call i32 @s_lock(ptr noundef %17, ptr noundef @.str.1, i32 noundef 203, ptr noundef @__func__.ShmemAllocRaw)
  br label %20

19:                                               ; preds = %2
  br label %20

20:                                               ; preds = %19, %16
  %21 = load ptr, ptr @ShmemSegHdr, align 8
  %22 = getelementptr inbounds nuw %struct.PGShmemHeader, ptr %21, i32 0, i32 3
  %23 = load i64, ptr %22, align 8
  store i64 %23, ptr %5, align 8
  %24 = load i64, ptr %5, align 8
  %25 = load i64, ptr %3, align 8
  %26 = add i64 %24, %25
  store i64 %26, ptr %6, align 8
  %27 = load i64, ptr %6, align 8
  %28 = load ptr, ptr @ShmemSegHdr, align 8
  %29 = getelementptr inbounds nuw %struct.PGShmemHeader, ptr %28, i32 0, i32 2
  %30 = load i64, ptr %29, align 8
  %31 = icmp ule i64 %27, %30
  br i1 %31, label %32, label %39

32:                                               ; preds = %20
  %33 = load ptr, ptr @ShmemBase, align 8
  %34 = load i64, ptr %5, align 8
  %35 = getelementptr inbounds nuw i8, ptr %33, i64 %34
  store ptr %35, ptr %7, align 8
  %36 = load i64, ptr %6, align 8
  %37 = load ptr, ptr @ShmemSegHdr, align 8
  %38 = getelementptr inbounds nuw %struct.PGShmemHeader, ptr %37, i32 0, i32 3
  store i64 %36, ptr %38, align 8
  br label %40

39:                                               ; preds = %20
  store ptr null, ptr %7, align 8
  br label %40

40:                                               ; preds = %39, %32
  br label %41

41:                                               ; preds = %40
  call void asm sideeffect "", "~{memory},~{dirflag},~{fpsr},~{flags}"() #6, !srcloc !5
  %42 = load ptr, ptr @ShmemLock, align 8
  store i8 0, ptr %42, align 1
  br label %43

43:                                               ; preds = %41
  br label %44

44:                                               ; preds = %43
  %45 = load ptr, ptr %7, align 8
  call void @llvm.lifetime.end.p0(i64 8, ptr %7) #6
  call void @llvm.lifetime.end.p0(i64 8, ptr %6) #6
  call void @llvm.lifetime.end.p0(i64 8, ptr %5) #6
  ret ptr %45
}

; Function Attrs: nounwind uwtable
define dso_local ptr @ShmemAlloc(i64 noundef %0) #0 {
  %2 = alloca i64, align 8
  %3 = alloca ptr, align 8
  %4 = alloca i64, align 8
  store i64 %0, ptr %2, align 8
  call void @llvm.lifetime.start.p0(i64 8, ptr %3) #6
  call void @llvm.lifetime.start.p0(i64 8, ptr %4) #6
  %5 = load i64, ptr %2, align 8
  %6 = call ptr @ShmemAllocRaw(i64 noundef %5, ptr noundef %4)
  store ptr %6, ptr %3, align 8
  %7 = load ptr, ptr %3, align 8
  %8 = icmp ne ptr %7, null
  br i1 %8, label %22, label %9

9:                                                ; preds = %1
  br label %10

10:                                               ; preds = %9
  br i1 true, label %11, label %13

11:                                               ; preds = %10
  %12 = call zeroext i1 @errstart_cold(i32 noundef 21, ptr noundef null) #7
  br i1 %12, label %15, label %19

13:                                               ; preds = %10
  %14 = call zeroext i1 @errstart(i32 noundef 21, ptr noundef null)
  br i1 %14, label %15, label %19

15:                                               ; preds = %13, %11
  %16 = call i32 @errcode(i32 noundef 8389)
  %17 = load i64, ptr %2, align 8
  %18 = call i32 (ptr, ...) @errmsg(ptr noundef @.str, i64 noundef %17)
  call void @errfinish(ptr noundef @.str.1, i32 noundef 157, ptr noundef @__func__.ShmemAlloc)
  br label %19

19:                                               ; preds = %15, %13, %11
  unreachable

20:                                               ; No predecessors!
  br label %21

21:                                               ; preds = %20
  br label %22

22:                                               ; preds = %21, %1
  %23 = load ptr, ptr %3, align 8
  call void @llvm.lifetime.end.p0(i64 8, ptr %4) #6
  call void @llvm.lifetime.end.p0(i64 8, ptr %3) #6
  ret ptr %23
}