; Function Attrs: nounwind uwtable
define dso_local nonnull ptr @ShmemAlloc(i64 noundef %0) local_unnamed_addr #1 {
  %2 = add i64 %0, 127
  %3 = and i64 %2, -128
  %4 = load ptr, ptr @ShmemLock, align 8
  %5 = tail call i8 asm sideeffect "\09lock\09\09\09\0A\09xchgb\09$0,$1\09\0A", "=q,=*m,0,*m,~{memory},~{cc},~{dirflag},~{fpsr},~{flags}"(ptr elementtype(i8) %4, i8 1, ptr elementtype(i8) %4) #9, !srcloc !5
  %.not.i = icmp eq i8 %5, 0
  br i1 %.not.i, label %9, label %6

6:                                                ; preds = %1
  %7 = load ptr, ptr @ShmemLock, align 8
  %8 = tail call i32 @s_lock(ptr noundef %7, ptr noundef nonnull @.str.1, i32 noundef 203, ptr noundef nonnull @__func__.ShmemAllocRaw) #9
  br label %9

9:                                                ; preds = %6, %1
  %10 = load ptr, ptr @ShmemSegHdr, align 8
  %11 = getelementptr inbounds nuw i8, ptr %10, i64 16
  %12 = load i64, ptr %11, align 8
  %13 = add i64 %12, %3
  %14 = getelementptr inbounds nuw i8, ptr %10, i64 8
  %15 = load i64, ptr %14, align 8
  %.not9.i = icmp ugt i64 %13, %15
  br i1 %.not9.i, label %ShmemAllocRaw.exit, label %16

16:                                               ; preds = %9
  %17 = load ptr, ptr @ShmemBase, align 8
  %18 = getelementptr inbounds nuw i8, ptr %17, i64 %12
  store i64 %13, ptr %11, align 8
  br label %ShmemAllocRaw.exit

ShmemAllocRaw.exit:                               ; preds = %9, %16
  %.0.i = phi ptr [ %18, %16 ], [ null, %9 ]
  tail call void asm sideeffect "", "~{memory},~{dirflag},~{fpsr},~{flags}"() #9, !srcloc !6
  %19 = load ptr, ptr @ShmemLock, align 8
  store i8 0, ptr %19, align 1
  %.not = icmp eq ptr %.0.i, null
  br i1 %.not, label %20, label %24

20:                                               ; preds = %ShmemAllocRaw.exit
  %21 = tail call zeroext i1 @errstart_cold(i32 noundef 21, ptr noundef null) #8
  tail call void @llvm.assume(i1 %21)
  %22 = tail call i32 @errcode(i32 noundef 8389) #9
  %23 = tail call i32 (ptr, ...) @errmsg(ptr noundef nonnull @.str, i64 noundef %0) #9
  tail call void @errfinish(ptr noundef nonnull @.str.1, i32 noundef 157, ptr noundef nonnull @__func__.ShmemAlloc) #9
  unreachable

24:                                               ; preds = %ShmemAllocRaw.exit
  ret ptr %.0.i
}